target datalayout = "e-m:e-p270:32:32-p271:32:32-p272:64:64-i64:64-i128:128-f80:128-n8:16:32:64-S128"
target triple = "x86_64-pc-linux-gnu"

@proto_abis_oml = internal global i32 0, align 4
@.str.248 = private unnamed_addr constant [14 x i8] c"lapd.gsm.sapi\00", align 1
@.str.249 = private unnamed_addr constant [16 x i8] c"gsm_abis_om2000\00", align 1
@sub_om2000 = internal global ptr null, align 8

; Function Attrs: null_pointer_is_valid sspstrong uwtable
define hidden void @proto_reg_handoff_abis_oml() #0 {
  %1 = alloca ptr, align 8
  call void @llvm.lifetime.start.p0(i64 8, ptr %1) #5
  %2 = load i32, ptr @proto_abis_oml, align 4
  %3 = call ptr @create_dissector_handle(ptr noundef @dissect_abis_oml, i32 noundef %2)
  store ptr %3, ptr %1, align 8
  %4 = load ptr, ptr %1, align 8
  call void @dissector_add_uint(ptr noundef @.str.248, i32 noundef 62, ptr noundef %4)
  %5 = load i32, ptr @proto_abis_oml, align 4
  %6 = call ptr @find_dissector_add_dependency(ptr noundef @.str.249, i32 noundef %5)
  store ptr %6, ptr @sub_om2000, align 8
  call void @llvm.lifetime.end.p0(i64 8, ptr %1) #5
  ret void
}