; Function Attrs: null_pointer_is_valid sspstrong uwtable
define hidden void @proto_reg_handoff_abis_oml() local_unnamed_addr #0 {
  %1 = load i32, ptr @proto_abis_oml, align 4
  %2 = tail call ptr @create_dissector_handle(ptr noundef nonnull @dissect_abis_oml, i32 noundef %1)
  tail call void @dissector_add_uint(ptr noundef nonnull @.str.248, i32 noundef 62, ptr noundef %2)
  %3 = load i32, ptr @proto_abis_oml, align 4
  %4 = tail call ptr @find_dissector_add_dependency(ptr noundef nonnull @.str.249, i32 noundef %3)
  store ptr %4, ptr @sub_om2000, align 8
  ret void
}